target datalayout = "e-m:e-p270:32:32-p271:32:32-p272:64:64-i64:64-i128:128-f80:128-n8:16:32:64-S128"
target triple = "x86_64-pc-linux-gnu"

%struct.RepeatInfo = type { i8, i32, i32, i32, i32, i32, i32, [2 x i32], i32, i32, i32, i32, i32 }
%struct.RepeatBitmapControl = type { i64, i64 }

; Function Attrs: alwaysinline nounwind uwtable
define internal i32 @findAndClearLSB_64(ptr noundef %0) #2 {
  %2 = alloca ptr, align 8
  %3 = alloca i64, align 8
  %4 = alloca i64, align 8
  store ptr %0, ptr %2, align 8
  call void @llvm.lifetime.start.p0(i64 8, ptr %3) #7
  %5 = load ptr, ptr %2, align 8
  %6 = load i64, ptr %5, align 8
  store i64 %6, ptr %3, align 8
  call void @llvm.lifetime.start.p0(i64 8, ptr %4) #7
  %7 = load i64, ptr %3, align 8
  %8 = call { i64, i64 } asm "bsfq $1, $0\0Abtrq $0, $1\0A", "=r,=r,1,~{dirflag},~{fpsr},~{flags}"(i64 %7) #8, !srcloc !5
  %9 = extractvalue { i64, i64 } %8, 0
  %10 = extractvalue { i64, i64 } %8, 1
  store i64 %9, ptr %4, align 8
  store i64 %10, ptr %3, align 8
  %11 = load i64, ptr %3, align 8
  %12 = load ptr, ptr %2, align 8
  store i64 %11, ptr %12, align 8
  %13 = load i64, ptr %4, align 8
  %14 = trunc i64 %13 to i32
  call void @llvm.lifetime.end.p0(i64 8, ptr %4) #7
  call void @llvm.lifetime.end.p0(i64 8, ptr %3) #7
  ret i32 %14
}

; Function Attrs: alwaysinline nounwind uwtable
define internal i32 @findAndClearMSB_64(ptr noundef %0) #2 {
  %2 = alloca ptr, align 8
  %3 = alloca i64, align 8
  %4 = alloca i64, align 8
  store ptr %0, ptr %2, align 8
  call void @llvm.lifetime.start.p0(i64 8, ptr %3) #7
  %5 = load ptr, ptr %2, align 8
  %6 = load i64, ptr %5, align 8
  store i64 %6, ptr %3, align 8
  call void @llvm.lifetime.start.p0(i64 8, ptr %4) #7
  %7 = load i64, ptr %3, align 8
  %8 = call { i64, i64 } asm "bsrq $1, $0\0Abtrq $0, $1\0A", "=r,=r,1,~{dirflag},~{fpsr},~{flags}"(i64 %7) #8, !srcloc !6
  %9 = extractvalue { i64, i64 } %8, 0
  %10 = extractvalue { i64, i64 } %8, 1
  store i64 %9, ptr %4, align 8
  store i64 %10, ptr %3, align 8
  %11 = load i64, ptr %3, align 8
  %12 = load ptr, ptr %2, align 8
  store i64 %11, ptr %12, align 8
  %13 = load i64, ptr %4, align 8
  %14 = trunc i64 %13 to i32
  call void @llvm.lifetime.end.p0(i64 8, ptr %4) #7
  call void @llvm.lifetime.end.p0(i64 8, ptr %3) #7
  ret i32 %14
}

; Function Attrs: nounwind uwtable
define hidden i32 @repeatHasMatchBitmap(ptr noundef %0, ptr noundef %1, i64 noundef %2) #0 {
  %4 = alloca i32, align 4
  %5 = alloca ptr, align 8
  %6 = alloca ptr, align 8
  %7 = alloca i64, align 8
  %8 = alloca ptr, align 8
  %9 = alloca i64, align 8
  %10 = alloca i32, align 4
  %11 = alloca i64, align 8
  %12 = alloca i64, align 8
  %13 = alloca i64, align 8
  store ptr %0, ptr %5, align 8
  store ptr %1, ptr %6, align 8
  store i64 %2, ptr %7, align 8
  call void @llvm.lifetime.start.p0(i64 8, ptr %8) #7
  %14 = load ptr, ptr %6, align 8
  store ptr %14, ptr %8, align 8
  br label %15

15:                                               ; preds = %3
  br label %16

16:                                               ; preds = %15
  br label %17

17:                                               ; preds = %16
  call void @llvm.lifetime.start.p0(i64 8, ptr %9) #7
  %18 = load ptr, ptr %8, align 8
  %19 = getelementptr inbounds nuw %struct.RepeatBitmapControl, ptr %18, i32 0, i32 1
  %20 = load i64, ptr %19, align 8
  store i64 %20, ptr %9, align 8
  %21 = load i64, ptr %9, align 8
  %22 = icmp ne i64 %21, 0
  br i1 %22, label %27, label %23

23:                                               ; preds = %17
  br label %24

24:                                               ; preds = %23
  br label %25

25:                                               ; preds = %24
  br label %26

26:                                               ; preds = %25
  store i32 2, ptr %4, align 4
  store i32 1, ptr %10, align 4
  br label %113

27:                                               ; preds = %17
  call void @llvm.lifetime.start.p0(i64 8, ptr %11) #7
  %28 = load ptr, ptr %8, align 8
  %29 = getelementptr inbounds nuw %struct.RepeatBitmapControl, ptr %28, i32 0, i32 0
  %30 = load i64, ptr %29, align 8
  store i64 %30, ptr %11, align 8
  %31 = load i64, ptr %7, align 8
  %32 = load i64, ptr %11, align 8
  %33 = sub i64 %31, %32
  %34 = load ptr, ptr %5, align 8
  %35 = getelementptr inbounds nuw %struct.RepeatInfo, ptr %34, i32 0, i32 1
  %36 = load i32, ptr %35, align 4
  %37 = zext i32 %36 to i64
  %38 = icmp ult i64 %33, %37
  br i1 %38, label %39, label %43

39:                                               ; preds = %27
  br label %40

40:                                               ; preds = %39
  br label %41

41:                                               ; preds = %40
  br label %42

42:                                               ; preds = %41
  store i32 0, ptr %4, align 4
  store i32 1, ptr %10, align 4
  br label %112

43:                                               ; preds = %27
  call void @llvm.lifetime.start.p0(i64 8, ptr %12) #7
  %44 = load i64, ptr %11, align 8
  %45 = call i32 @findAndClearMSB_64(ptr noundef %9)
  %46 = zext i32 %45 to i64
  %47 = add i64 %44, %46
  store i64 %47, ptr %12, align 8
  br label %48

48:                                               ; preds = %43
  br label %49

49:                                               ; preds = %48
  br label %50

50:                                               ; preds = %49
  call void @llvm.lifetime.start.p0(i64 8, ptr %13) #7
  %51 = load i64, ptr %7, align 8
  %52 = load i64, ptr %12, align 8
  %53 = sub i64 %51, %52
  store i64 %53, ptr %13, align 8
  %54 = load i64, ptr %13, align 8
  %55 = load ptr, ptr %5, align 8
  %56 = getelementptr inbounds nuw %struct.RepeatInfo, ptr %55, i32 0, i32 2
  %57 = load i32, ptr %56, align 4
  %58 = zext i32 %57 to i64
  %59 = icmp ugt i64 %54, %58
  br i1 %59, label %60, label %64

60:                                               ; preds = %50
  br label %61

61:                                               ; preds = %60
  br label %62

62:                                               ; preds = %61
  br label %63

63:                                               ; preds = %62
  store i32 2, ptr %4, align 4
  store i32 1, ptr %10, align 4
  br label %111

64:                                               ; preds = %50
  %65 = load i64, ptr %13, align 8
  %66 = load ptr, ptr %5, align 8
  %67 = getelementptr inbounds nuw %struct.RepeatInfo, ptr %66, i32 0, i32 1
  %68 = load i32, ptr %67, align 4
  %69 = zext i32 %68 to i64
  %70 = icmp uge i64 %65, %69
  br i1 %70, label %71, label %79

71:                                               ; preds = %64
  %72 = load i64, ptr %13, align 8
  %73 = load ptr, ptr %5, align 8
  %74 = getelementptr inbounds nuw %struct.RepeatInfo, ptr %73, i32 0, i32 2
  %75 = load i32, ptr %74, align 4
  %76 = zext i32 %75 to i64
  %77 = icmp ule i64 %72, %76
  br i1 %77, label %78, label %79

78:                                               ; preds = %71
  store i32 1, ptr %4, align 4
  store i32 1, ptr %10, align 4
  br label %111

79:                                               ; preds = %71, %64
  br label %80

80:                                               ; preds = %79
  br label %81

81:                                               ; preds = %109, %80
  %82 = load i64, ptr %9, align 8
  %83 = icmp ne i64 %82, 0
  br i1 %83, label %84, label %110

84:                                               ; preds = %81
  %85 = load i64, ptr %11, align 8
  %86 = call i32 @findAndClearLSB_64(ptr noundef %9)
  %87 = zext i32 %86 to i64
  %88 = add i64 %85, %87
  store i64 %88, ptr %12, align 8
  br label %89

89:                                               ; preds = %84
  br label %90

90:                                               ; preds = %89
  br label %91

91:                                               ; preds = %90
  %92 = load i64, ptr %7, align 8
  %93 = load i64, ptr %12, align 8
  %94 = sub i64 %92, %93
  store i64 %94, ptr %13, align 8
  %95 = load i64, ptr %13, align 8
  %96 = load ptr, ptr %5, align 8
  %97 = getelementptr inbounds nuw %struct.RepeatInfo, ptr %96, i32 0, i32 1
  %98 = load i32, ptr %97, align 4
  %99 = zext i32 %98 to i64
  %100 = icmp uge i64 %95, %99
  br i1 %100, label %101, label %109

101:                                              ; preds = %91
  %102 = load i64, ptr %13, align 8
  %103 = load ptr, ptr %5, align 8
  %104 = getelementptr inbounds nuw %struct.RepeatInfo, ptr %103, i32 0, i32 2
  %105 = load i32, ptr %104, align 4
  %106 = zext i32 %105 to i64
  %107 = icmp ule i64 %102, %106
  br i1 %107, label %108, label %109

108:                                              ; preds = %101
  store i32 1, ptr %4, align 4
  store i32 1, ptr %10, align 4
  br label %111

109:                                              ; preds = %101, %91
  br label %81

110:                                              ; preds = %81
  store i32 0, ptr %4, align 4
  store i32 1, ptr %10, align 4
  br label %111

111:                                              ; preds = %110, %108, %78, %63
  call void @llvm.lifetime.end.p0(i64 8, ptr %13) #7
  call void @llvm.lifetime.end.p0(i64 8, ptr %12) #7
  br label %112

112:                                              ; preds = %111, %42
  call void @llvm.lifetime.end.p0(i64 8, ptr %11) #7
  br label %113

113:                                              ; preds = %112, %26
  call void @llvm.lifetime.end.p0(i64 8, ptr %9) #7
  call void @llvm.lifetime.end.p0(i64 8, ptr %8) #7
  %114 = load i32, ptr %4, align 4
  ret i32 %114
}