; Function Attrs: nofree nounwind memory(argmem: read) uwtable
define hidden range(i32 0, 3) i32 @repeatHasMatchBitmap(ptr noundef readonly captures(none) %0, ptr noundef readonly captures(none) %1, i64 noundef %2) local_unnamed_addr #3 {
  %4 = getelementptr inbounds nuw i8, ptr %1, i64 8
  %5 = load i64, ptr %4, align 8
  %.not = icmp eq i64 %5, 0
  br i1 %.not, label %.loopexit, label %6

6:                                                ; preds = %3
  %7 = load i64, ptr %1, align 8
  %8 = sub i64 %2, %7
  %9 = getelementptr inbounds nuw i8, ptr %0, i64 4
  %10 = load i32, ptr %9, align 4
  %11 = zext i32 %10 to i64
  %12 = icmp ult i64 %8, %11
  br i1 %12, label %.loopexit, label %13

13:                                               ; preds = %6
  %14 = tail call { i64, i64 } asm "bsrq $1, $0\0Abtrq $0, $1\0A", "=r,=r,1,~{dirflag},~{fpsr},~{flags}"(i64 %5) #11, !srcloc !7
  %15 = extractvalue { i64, i64 } %14, 0
  %16 = and i64 %15, 4294967295
  %17 = add i64 %7, %16
  %18 = sub i64 %2, %17
  %19 = getelementptr inbounds nuw i8, ptr %0, i64 8
  %20 = load i32, ptr %19, align 4
  %21 = zext i32 %20 to i64
  %22 = icmp ugt i64 %18, %21
  br i1 %22, label %.loopexit, label %23

23:                                               ; preds = %13
  %.not25 = icmp samesign ult i64 %18, %11
  br i1 %.not25, label %.preheader, label %.loopexit

.preheader:                                       ; preds = %23, %24
  %.pn = phi { i64, i64 } [ %25, %24 ], [ %14, %23 ]
  %.032 = extractvalue { i64, i64 } %.pn, 1
  %.not27 = icmp eq i64 %.032, 0
  br i1 %.not27, label %.loopexit, label %24

24:                                               ; preds = %.preheader
  %25 = tail call { i64, i64 } asm "bsfq $1, $0\0Abtrq $0, $1\0A", "=r,=r,1,~{dirflag},~{fpsr},~{flags}"(i64 %.032) #11, !srcloc !5
  %26 = extractvalue { i64, i64 } %25, 0
  %27 = and i64 %26, 4294967295
  %28 = add i64 %7, %27
  %29 = sub i64 %2, %28
  %.not28 = icmp ult i64 %29, %11
  %.not29 = icmp ugt i64 %29, %21
  %or.cond = or i1 %.not28, %.not29
  br i1 %or.cond, label %.preheader, label %.loopexit

.loopexit:                                        ; preds = %24, %.preheader, %6, %23, %13, %3
  %.0 = phi i32 [ 2, %3 ], [ 0, %6 ], [ 2, %13 ], [ 1, %23 ], [ 1, %24 ], [ 0, %.preheader ]
  ret i32 %.0
}